target datalayout = "e-m:e-p270:32:32-p271:32:32-p272:64:64-i64:64-i128:128-f80:128-n8:16:32:64-S128"
target triple = "x86_64-pc-linux-gnu"

%"class.gmx::NoseHooverGroup" = type { float, float, float, i32, float, %"class.std::vector", %"class.std::vector", double, %"class.std::vector", float, float }
%"class.std::vector" = type { %"struct.std::_Vector_base" }
%"struct.std::_Vector_base" = type { %"struct.std::_Vector_base<float, std::allocator<float>>::_Vector_impl" }
%"struct.std::_Vector_base<float, std::allocator<float>>::_Vector_impl" = type { %"struct.std::_Vector_base<float, std::allocator<float>>::_Vector_impl_data" }
%"struct.std::_Vector_base<float, std::allocator<float>>::_Vector_impl_data" = type { ptr, ptr, ptr }
%class.anon.316 = type { i8 }

@.str.7 = private unnamed_addr constant [143 x i8] c"generated/home/dtcxzyw/WorkSpace/Projects/compilers/llvm-opt-benchmark/bench/gromacs/gromacs/src/gromacs/modularsimulator/nosehooverchains.cpp\00", align 1
@.str.16 = private unnamed_addr constant [47 x i8] c"newTemperatureIsValid == oldTemperatureIsValid\00", align 1
@.str.17 = private unnamed_addr constant [65 x i8] c"Cannot turn temperature coupling on / off during simulation run.\00", align 1
@"__PRETTY_FUNCTION__._ZZN3gmx15NoseHooverGroup26updateReferenceTemperatureEfENK3$_0clEv" = private unnamed_addr constant [99 x i8] c"auto gmx::NoseHooverGroup::updateReferenceTemperature(real)::(anonymous class)::operator()() const\00", align 1

; Function Attrs: mustprogress nounwind uwtable
define linkonce_odr noundef float @_ZN3gmx6squareIfEET_S1_(float noundef %0) #0 comdat {
  %2 = alloca float, align 4
  store float %0, ptr %2, align 4, !tbaa !65
  %3 = load float, ptr %2, align 4, !tbaa !65
  %4 = load float, ptr %2, align 4, !tbaa !65
  %5 = fmul float %3, %4
  ret float %5
}

; Function Attrs: inlinehint mustprogress nounwind uwtable
define linkonce_odr noundef zeroext i1 @_ZN3gmx10timesCloseEdd(double noundef %0, double noundef %1) #2 comdat {
  %3 = alloca double, align 8
  %4 = alloca double, align 8
  %5 = alloca float, align 4
  store double %0, ptr %3, align 8, !tbaa !41
  store double %1, ptr %4, align 8, !tbaa !41
  call void @llvm.lifetime.start.p0(i64 4, ptr %5) #21
  store float 0x3EB0C6F7A0000000, ptr %5, align 4, !tbaa !65
  %6 = load double, ptr %3, align 8, !tbaa !41
  %7 = load double, ptr %4, align 8, !tbaa !41
  %8 = fsub double %6, %7
  %9 = load double, ptr %3, align 8, !tbaa !41
  %10 = load double, ptr %4, align 8, !tbaa !41
  %11 = fsub double %9, %10
  %12 = fmul double %8, %11
  %13 = fcmp olt double %12, 0x3D71979980000000
  call void @llvm.lifetime.end.p0(i64 4, ptr %5) #21
  ret i1 %13
}

; Function Attrs: mustprogress nounwind uwtable
define linkonce_odr noundef i64 @_ZSt6lroundf(float noundef %0) #0 comdat {
  %2 = alloca float, align 4
  store float %0, ptr %2, align 4, !tbaa !65
  %3 = load float, ptr %2, align 4, !tbaa !65
  %4 = call i64 @lroundf(float noundef %3) #21, !tbaa !64
  ret i64 %4
}

; Function Attrs: mustprogress uwtable
define void @_ZN3gmx15NoseHooverGroup17calculateIntegralEv(ptr noundef nonnull align 8 dereferenceable(112) %0) #1 align 2 {
  %2 = alloca ptr, align 8
  %3 = alloca i32, align 4
  %4 = alloca float, align 4
  store ptr %0, ptr %2, align 8, !tbaa !34
  %5 = load ptr, ptr %2, align 8
  %6 = getelementptr inbounds nuw %"class.gmx::NoseHooverGroup", ptr %5, i32 0, i32 7
  store double 0.000000e+00, ptr %6, align 8, !tbaa !78
  call void @llvm.lifetime.start.p0(i64 4, ptr %3) #21
  store i32 0, ptr %3, align 4, !tbaa !64
  br label %7

7:                                                ; preds = %53, %1
  %8 = load i32, ptr %3, align 4, !tbaa !64
  %9 = getelementptr inbounds nuw %"class.gmx::NoseHooverGroup", ptr %5, i32 0, i32 3
  %10 = load i32, ptr %9, align 4, !tbaa !76
  %11 = icmp slt i32 %8, %10
  br i1 %11, label %13, label %12

12:                                               ; preds = %7
  call void @llvm.lifetime.end.p0(i64 4, ptr %3) #21
  br label %56

13:                                               ; preds = %7
  call void @llvm.lifetime.start.p0(i64 4, ptr %4) #21
  %14 = load i32, ptr %3, align 4, !tbaa !64
  %15 = icmp eq i32 %14, 0
  br i1 %15, label %16, label %19

16:                                               ; preds = %13
  %17 = getelementptr inbounds nuw %"class.gmx::NoseHooverGroup", ptr %5, i32 0, i32 2
  %18 = load float, ptr %17, align 8, !tbaa !75
  br label %20

19:                                               ; preds = %13
  br label %20

20:                                               ; preds = %19, %16
  %21 = phi float [ %18, %16 ], [ 1.000000e+00, %19 ]
  store float %21, ptr %4, align 4, !tbaa !65
  %22 = getelementptr inbounds nuw %"class.gmx::NoseHooverGroup", ptr %5, i32 0, i32 6
  %23 = load i32, ptr %3, align 4, !tbaa !64
  %24 = sext i32 %23 to i64
  %25 = call noundef nonnull align 4 dereferenceable(4) ptr @_ZNSt6vectorIfSaIfEEixEm(ptr noundef nonnull align 8 dereferenceable(24) %22, i64 noundef %24) #21
  %26 = load float, ptr %25, align 4, !tbaa !65
  %27 = call noundef float @_ZN3gmx6squareIfEET_S1_(float noundef %26)
  %28 = fpext float %27 to double
  %29 = fmul double 5.000000e-01, %28
  %30 = getelementptr inbounds nuw %"class.gmx::NoseHooverGroup", ptr %5, i32 0, i32 8
  %31 = load i32, ptr %3, align 4, !tbaa !64
  %32 = sext i32 %31 to i64
  %33 = call noundef nonnull align 4 dereferenceable(4) ptr @_ZNSt6vectorIfSaIfEEixEm(ptr noundef nonnull align 8 dereferenceable(24) %30, i64 noundef %32) #21
  %34 = load float, ptr %33, align 4, !tbaa !65
  %35 = fpext float %34 to double
  %36 = fdiv double %29, %35
  %37 = load float, ptr %4, align 4, !tbaa !65
  %38 = getelementptr inbounds nuw %"class.gmx::NoseHooverGroup", ptr %5, i32 0, i32 5
  %39 = load i32, ptr %3, align 4, !tbaa !64
  %40 = sext i32 %39 to i64
  %41 = call noundef nonnull align 4 dereferenceable(4) ptr @_ZNSt6vectorIfSaIfEEixEm(ptr noundef nonnull align 8 dereferenceable(24) %38, i64 noundef %40) #21
  %42 = load float, ptr %41, align 4, !tbaa !65
  %43 = fmul float %37, %42
  %44 = fpext float %43 to double
  %45 = fmul double %44, 0x3F81072C483AF26D
  %46 = getelementptr inbounds nuw %"class.gmx::NoseHooverGroup", ptr %5, i32 0, i32 0
  %47 = load float, ptr %46, align 8, !tbaa !68
  %48 = fpext float %47 to double
  %49 = call double @llvm.fmuladd.f64(double %45, double %48, double %36)
  %50 = getelementptr inbounds nuw %"class.gmx::NoseHooverGroup", ptr %5, i32 0, i32 7
  %51 = load double, ptr %50, align 8, !tbaa !78
  %52 = fadd double %51, %49
  store double %52, ptr %50, align 8, !tbaa !78
  call void @llvm.lifetime.end.p0(i64 4, ptr %4) #21
  br label %53

53:                                               ; preds = %20
  %54 = load i32, ptr %3, align 4, !tbaa !64
  %55 = add nsw i32 %54, 1
  store i32 %55, ptr %3, align 4, !tbaa !64
  br label %7, !llvm.loop !680

56:                                               ; preds = %12
  %57 = getelementptr inbounds nuw %"class.gmx::NoseHooverGroup", ptr %5, i32 0, i32 9
  %58 = load float, ptr %57, align 8, !tbaa !79
  %59 = getelementptr inbounds nuw %"class.gmx::NoseHooverGroup", ptr %5, i32 0, i32 10
  store float %58, ptr %59, align 4, !tbaa !80
  ret void
}

; Function Attrs: inlinehint mustprogress uwtable
define linkonce_odr noundef zeroext i1 @_ZNK3gmx15NoseHooverGroup24isAtFullCouplingTimeStepEv(ptr noundef nonnull align 8 dereferenceable(112) %0) #8 comdat align 2 {
  %2 = alloca ptr, align 8
  store ptr %0, ptr %2, align 8, !tbaa !34
  %3 = load ptr, ptr %2, align 8
  %4 = getelementptr inbounds nuw %"class.gmx::NoseHooverGroup", ptr %3, i32 0, i32 9
  %5 = load float, ptr %4, align 8, !tbaa !79
  %6 = getelementptr inbounds nuw %"class.gmx::NoseHooverGroup", ptr %3, i32 0, i32 4
  %7 = load float, ptr %6, align 8, !tbaa !77
  %8 = fdiv float %5, %7
  %9 = call noundef i64 @_ZSt6lroundf(float noundef %8)
  %10 = sitofp i64 %9 to float
  %11 = getelementptr inbounds nuw %"class.gmx::NoseHooverGroup", ptr %3, i32 0, i32 4
  %12 = load float, ptr %11, align 8, !tbaa !77
  %13 = fmul float %10, %12
  %14 = fpext float %13 to double
  %15 = getelementptr inbounds nuw %"class.gmx::NoseHooverGroup", ptr %3, i32 0, i32 9
  %16 = load float, ptr %15, align 8, !tbaa !79
  %17 = fpext float %16 to double
  %18 = call noundef zeroext i1 @_ZN3gmx10timesCloseEdd(double noundef %14, double noundef %17)
  ret i1 %18
}

; Function Attrs: mustprogress nounwind uwtable
define linkonce_odr noundef nonnull align 4 dereferenceable(4) ptr @_ZNSt6vectorIfSaIfEEixEm(ptr noundef nonnull align 8 dereferenceable(24) %0, i64 noundef %1) #0 comdat align 2 {
  %3 = alloca ptr, align 8
  %4 = alloca i64, align 8
  store ptr %0, ptr %3, align 8, !tbaa !85
  store i64 %1, ptr %4, align 8, !tbaa !39
  %5 = load ptr, ptr %3, align 8
  %6 = getelementptr inbounds nuw %"struct.std::_Vector_base", ptr %5, i32 0, i32 0
  %7 = getelementptr inbounds nuw %"struct.std::_Vector_base<float, std::allocator<float>>::_Vector_impl_data", ptr %6, i32 0, i32 0
  %8 = load ptr, ptr %7, align 8, !tbaa !90
  %9 = load i64, ptr %4, align 8, !tbaa !39
  %10 = getelementptr inbounds nuw float, ptr %8, i64 %9
  ret ptr %10
}

; Function Attrs: inlinehint mustprogress nounwind uwtable
define linkonce_odr noundef float @_ZSt4sqrtf(float noundef %0) #2 comdat {
  %2 = alloca float, align 4
  store float %0, ptr %2, align 4, !tbaa !65
  %3 = load float, ptr %2, align 4, !tbaa !65
  %4 = call float @sqrtf(float noundef %3) #21, !tbaa !64
  ret float %4
}

; Function Attrs: inlinehint mustprogress uwtable
define internal void @"_ZZN3gmx15NoseHooverGroup26updateReferenceTemperatureEfENK3$_0clEv"(ptr noundef nonnull align 1 dereferenceable(1) %0) #8 align 2 {
  %2 = alloca ptr, align 8
  store ptr %0, ptr %2, align 8, !tbaa !101
  call void @_ZN3gmx8internal13assertHandlerEPKcS2_S2_S2_i(ptr noundef @.str.16, ptr noundef @.str.17, ptr noundef @"__PRETTY_FUNCTION__._ZZN3gmx15NoseHooverGroup26updateReferenceTemperatureEfENK3$_0clEv", ptr noundef @.str.7, i32 noundef 353) #24
  unreachable
}

; Function Attrs: mustprogress uwtable
define void @_ZN3gmx15NoseHooverGroup26updateReferenceTemperatureEf(ptr noundef nonnull align 8 dereferenceable(112) %0, float noundef %1) #1 align 2 {
  %3 = alloca ptr, align 8
  %4 = alloca float, align 4
  %5 = alloca i8, align 1
  %6 = alloca i8, align 1
  %7 = alloca %class.anon.316, align 1
  %8 = alloca float, align 4
  %9 = alloca i32, align 4
  store ptr %0, ptr %3, align 8, !tbaa !34
  store float %1, ptr %4, align 4, !tbaa !65
  %10 = load ptr, ptr %3, align 8
  call void @llvm.lifetime.start.p0(i64 1, ptr %5) #21
  %11 = load float, ptr %4, align 4, !tbaa !65
  %12 = fcmp ogt float %11, 0.000000e+00
  br i1 %12, label %13, label %21

13:                                               ; preds = %2
  %14 = getelementptr inbounds nuw %"class.gmx::NoseHooverGroup", ptr %10, i32 0, i32 1
  %15 = load float, ptr %14, align 4, !tbaa !74
  %16 = fcmp ogt float %15, 0.000000e+00
  br i1 %16, label %17, label %21

17:                                               ; preds = %13
  %18 = getelementptr inbounds nuw %"class.gmx::NoseHooverGroup", ptr %10, i32 0, i32 2
  %19 = load float, ptr %18, align 8, !tbaa !75
  %20 = fcmp ogt float %19, 0.000000e+00
  br label %21

21:                                               ; preds = %17, %13, %2
  %22 = phi i1 [ false, %13 ], [ false, %2 ], [ %20, %17 ]
  %23 = zext i1 %22 to i8
  store i8 %23, ptr %5, align 1, !tbaa !102
  call void @llvm.lifetime.start.p0(i64 1, ptr %6) #21
  %24 = getelementptr inbounds nuw %"class.gmx::NoseHooverGroup", ptr %10, i32 0, i32 0
  %25 = load float, ptr %24, align 8, !tbaa !68
  %26 = fcmp ogt float %25, 0.000000e+00
  br i1 %26, label %27, label %35

27:                                               ; preds = %21
  %28 = getelementptr inbounds nuw %"class.gmx::NoseHooverGroup", ptr %10, i32 0, i32 1
  %29 = load float, ptr %28, align 4, !tbaa !74
  %30 = fcmp ogt float %29, 0.000000e+00
  br i1 %30, label %31, label %35

31:                                               ; preds = %27
  %32 = getelementptr inbounds nuw %"class.gmx::NoseHooverGroup", ptr %10, i32 0, i32 2
  %33 = load float, ptr %32, align 8, !tbaa !75
  %34 = fcmp ogt float %33, 0.000000e+00
  br label %35

35:                                               ; preds = %31, %27, %21
  %36 = phi i1 [ false, %27 ], [ false, %21 ], [ %34, %31 ]
  %37 = zext i1 %36 to i8
  store i8 %37, ptr %6, align 1, !tbaa !102
  %38 = load i8, ptr %5, align 1, !tbaa !102, !range !440, !noundef !441
  %39 = trunc i8 %38 to i1
  %40 = zext i1 %39 to i32
  %41 = load i8, ptr %6, align 1, !tbaa !102, !range !440, !noundef !441
  %42 = trunc i8 %41 to i1
  %43 = zext i1 %42 to i32
  %44 = icmp eq i32 %40, %43
  call void @llvm.lifetime.start.p0(i64 1, ptr %7) #21
  br i1 %44, label %45, label %46

45:                                               ; preds = %35
  br label %47

46:                                               ; preds = %35
  call void @"_ZZN3gmx15NoseHooverGroup26updateReferenceTemperatureEfENK3$_0clEv"(ptr noundef nonnull align 1 dereferenceable(1) %7)
  br label %47

47:                                               ; preds = %46, %45
  call void @llvm.lifetime.end.p0(i64 1, ptr %7) #21
  %48 = load i8, ptr %6, align 1, !tbaa !102, !range !440, !noundef !441
  %49 = trunc i8 %48 to i1
  br i1 %49, label %50, label %87

50:                                               ; preds = %47
  %51 = load i8, ptr %5, align 1, !tbaa !102, !range !440, !noundef !441
  %52 = trunc i8 %51 to i1
  br i1 %52, label %53, label %87

53:                                               ; preds = %50
  call void @llvm.lifetime.start.p0(i64 4, ptr %8) #21
  %54 = load float, ptr %4, align 4, !tbaa !65
  %55 = getelementptr inbounds nuw %"class.gmx::NoseHooverGroup", ptr %10, i32 0, i32 0
  %56 = load float, ptr %55, align 8, !tbaa !68
  %57 = fdiv float %54, %56
  %58 = call noundef float @_ZSt4sqrtf(float noundef %57)
  store float %58, ptr %8, align 4, !tbaa !65
  call void @llvm.lifetime.start.p0(i64 4, ptr %9) #21
  store i32 0, ptr %9, align 4, !tbaa !64
  br label %59

59:                                               ; preds = %83, %53
  %60 = load i32, ptr %9, align 4, !tbaa !64
  %61 = getelementptr inbounds nuw %"class.gmx::NoseHooverGroup", ptr %10, i32 0, i32 3
  %62 = load i32, ptr %61, align 4, !tbaa !76
  %63 = icmp slt i32 %60, %62
  br i1 %63, label %65, label %64

64:                                               ; preds = %59
  call void @llvm.lifetime.end.p0(i64 4, ptr %9) #21
  br label %86

65:                                               ; preds = %59
  %66 = getelementptr inbounds nuw %"class.gmx::NoseHooverGroup", ptr %10, i32 0, i32 0
  %67 = load float, ptr %66, align 8, !tbaa !68
  %68 = load float, ptr %4, align 4, !tbaa !65
  %69 = fdiv float %67, %68
  %70 = getelementptr inbounds nuw %"class.gmx::NoseHooverGroup", ptr %10, i32 0, i32 8
  %71 = load i32, ptr %9, align 4, !tbaa !64
  %72 = sext i32 %71 to i64
  %73 = call noundef nonnull align 4 dereferenceable(4) ptr @_ZNSt6vectorIfSaIfEEixEm(ptr noundef nonnull align 8 dereferenceable(24) %70, i64 noundef %72) #21
  %74 = load float, ptr %73, align 4, !tbaa !65
  %75 = fmul float %74, %69
  store float %75, ptr %73, align 4, !tbaa !65
  %76 = load float, ptr %8, align 4, !tbaa !65
  %77 = getelementptr inbounds nuw %"class.gmx::NoseHooverGroup", ptr %10, i32 0, i32 6
  %78 = load i32, ptr %9, align 4, !tbaa !64
  %79 = sext i32 %78 to i64
  %80 = call noundef nonnull align 4 dereferenceable(4) ptr @_ZNSt6vectorIfSaIfEEixEm(ptr noundef nonnull align 8 dereferenceable(24) %77, i64 noundef %79) #21
  %81 = load float, ptr %80, align 4, !tbaa !65
  %82 = fmul float %81, %76
  store float %82, ptr %80, align 4, !tbaa !65
  br label %83

83:                                               ; preds = %65
  %84 = load i32, ptr %9, align 4, !tbaa !64
  %85 = add nsw i32 %84, 1
  store i32 %85, ptr %9, align 4, !tbaa !64
  br label %59, !llvm.loop !685

86:                                               ; preds = %64
  call void @llvm.lifetime.end.p0(i64 4, ptr %8) #21
  br label %87

87:                                               ; preds = %86, %50, %47
  %88 = load float, ptr %4, align 4, !tbaa !65
  %89 = getelementptr inbounds nuw %"class.gmx::NoseHooverGroup", ptr %10, i32 0, i32 0
  store float %88, ptr %89, align 8, !tbaa !68
  %90 = call noundef zeroext i1 @_ZNK3gmx15NoseHooverGroup24isAtFullCouplingTimeStepEv(ptr noundef nonnull align 8 dereferenceable(112) %10)
  br i1 %90, label %91, label %92

91:                                               ; preds = %87
  call void @_ZN3gmx15NoseHooverGroup17calculateIntegralEv(ptr noundef nonnull align 8 dereferenceable(112) %10)
  br label %92

92:                                               ; preds = %91, %87
  call void @llvm.lifetime.end.p0(i64 1, ptr %6) #21
  call void @llvm.lifetime.end.p0(i64 1, ptr %5) #21
  ret void
}