; Function Attrs: mustprogress uwtable
define void @_ZN3gmx15NoseHooverGroup26updateReferenceTemperatureEf(ptr noundef nonnull align 8 captures(none) dereferenceable(112) %0, float noundef %1) local_unnamed_addr #1 align 2 {
  %3 = fcmp ogt float %1, 0.000000e+00
  %4 = getelementptr inbounds nuw i8, ptr %0, i64 4
  %5 = load float, ptr %4, align 4
  %6 = fcmp ogt float %5, 0.000000e+00
  %or.cond = select i1 %3, i1 %6, i1 false
  br i1 %or.cond, label %7, label %.thread22

7:                                                ; preds = %2
  %8 = getelementptr inbounds nuw i8, ptr %0, i64 8
  %9 = load float, ptr %8, align 8, !tbaa !82
  %10 = fcmp ogt float %9, 0.000000e+00
  %11 = load float, ptr %0, align 8, !tbaa !46
  %12 = fcmp ogt float %11, 0.000000e+00
  br i1 %12, label %19, label %._crit_edge

.thread22:                                        ; preds = %2
  %13 = load float, ptr %0, align 8, !tbaa !46
  %14 = fcmp ogt float %13, 0.000000e+00
  %or.cond1723 = select i1 %14, i1 %6, i1 false
  %15 = getelementptr inbounds nuw i8, ptr %0, i64 8
  %16 = load float, ptr %15, align 8
  %17 = fcmp ogt float %16, 0.000000e+00
  %or.cond30 = select i1 %or.cond1723, i1 %17, i1 false
  br i1 %or.cond30, label %18, label %.thread

._crit_edge:                                      ; preds = %7
  br i1 %10, label %18, label %.thread

18:                                               ; preds = %.thread22, %._crit_edge
  tail call void @_ZN3gmx8internal13assertHandlerEPKcS2_S2_S2_i(ptr noundef nonnull @.str.16, ptr noundef nonnull @.str.17, ptr noundef nonnull @"__PRETTY_FUNCTION__._ZZN3gmx15NoseHooverGroup26updateReferenceTemperatureEfENK3$_0clEv", ptr noundef nonnull @.str.7, i32 noundef 353) #32
  unreachable

19:                                               ; preds = %7
  br i1 %10, label %20, label %.thread

20:                                               ; preds = %19
  %21 = fdiv float %1, %11
  %22 = tail call noundef float @sqrtf(float noundef %21) #30, !tbaa !86
  %23 = getelementptr inbounds nuw i8, ptr %0, i64 12
  %24 = load i32, ptr %23, align 4, !tbaa !44
  %25 = icmp sgt i32 %24, 0
  br i1 %25, label %.lr.ph, label %.thread

.lr.ph:                                           ; preds = %20
  %26 = getelementptr inbounds nuw i8, ptr %0, i64 80
  %27 = load ptr, ptr %26, align 8, !tbaa !45
  %28 = getelementptr inbounds nuw i8, ptr %0, i64 48
  %29 = load ptr, ptr %28, align 8, !tbaa !45
  %wide.trip.count = zext nneg i32 %24 to i64
  br label %30

30:                                               ; preds = %.lr.ph, %30
  %indvars.iv = phi i64 [ 0, %.lr.ph ], [ %indvars.iv.next, %30 ]
  %31 = load float, ptr %0, align 8, !tbaa !46
  %32 = fdiv float %31, %1
  %33 = getelementptr inbounds nuw float, ptr %27, i64 %indvars.iv
  %34 = load float, ptr %33, align 4, !tbaa !47
  %35 = fmul float %32, %34
  store float %35, ptr %33, align 4, !tbaa !47
  %36 = getelementptr inbounds nuw float, ptr %29, i64 %indvars.iv
  %37 = load float, ptr %36, align 4, !tbaa !47
  %38 = fmul float %22, %37
  store float %38, ptr %36, align 4, !tbaa !47
  %indvars.iv.next = add nuw nsw i64 %indvars.iv, 1
  %exitcond.not = icmp eq i64 %indvars.iv.next, %wide.trip.count
  br i1 %exitcond.not, label %.thread, label %30, !llvm.loop !337

.thread:                                          ; preds = %30, %20, %.thread22, %._crit_edge, %19
  store float %1, ptr %0, align 8, !tbaa !46
  %39 = getelementptr inbounds nuw i8, ptr %0, i64 104
  %40 = load float, ptr %39, align 8, !tbaa !50
  %41 = getelementptr inbounds nuw i8, ptr %0, i64 16
  %42 = load float, ptr %41, align 8, !tbaa !83
  %43 = fdiv float %40, %42
  %44 = tail call noundef i64 @lroundf(float noundef %43) #30, !tbaa !86
  %45 = sitofp i64 %44 to float
  %46 = fmul float %42, %45
  %47 = fpext float %46 to double
  %48 = fpext float %40 to double
  %49 = fsub double %47, %48
  %50 = fmul double %49, %49
  %51 = fcmp olt double %50, 0x3D71979980000000
  br i1 %51, label %52, label %87

52:                                               ; preds = %.thread
  %53 = getelementptr inbounds nuw i8, ptr %0, i64 72
  store double 0.000000e+00, ptr %53, align 8, !tbaa !35
  %54 = getelementptr inbounds nuw i8, ptr %0, i64 12
  %55 = load i32, ptr %54, align 4, !tbaa !44
  %56 = icmp sgt i32 %55, 0
  br i1 %56, label %.lr.ph.i, label %_ZN3gmx15NoseHooverGroup17calculateIntegralEv.exit

.lr.ph.i:                                         ; preds = %52
  %57 = getelementptr inbounds nuw i8, ptr %0, i64 8
  %58 = load float, ptr %57, align 8
  %59 = getelementptr inbounds nuw i8, ptr %0, i64 48
  %60 = load ptr, ptr %59, align 8, !tbaa !45
  %61 = getelementptr inbounds nuw i8, ptr %0, i64 80
  %62 = load ptr, ptr %61, align 8, !tbaa !45
  %63 = getelementptr inbounds nuw i8, ptr %0, i64 24
  %64 = load ptr, ptr %63, align 8, !tbaa !45
  %65 = fpext float %1 to double
  %wide.trip.count.i = zext nneg i32 %55 to i64
  br label %66

._crit_edge.i:                                    ; preds = %66
  store double %85, ptr %53, align 8, !tbaa !35
  br label %_ZN3gmx15NoseHooverGroup17calculateIntegralEv.exit

66:                                               ; preds = %66, %.lr.ph.i
  %indvars.iv.i = phi i64 [ 0, %.lr.ph.i ], [ %indvars.iv.next.i, %66 ]
  %67 = phi double [ 0.000000e+00, %.lr.ph.i ], [ %85, %66 ]
  %68 = icmp eq i64 %indvars.iv.i, 0
  %69 = select i1 %68, float %58, float 1.000000e+00
  %70 = getelementptr inbounds nuw float, ptr %60, i64 %indvars.iv.i
  %71 = load float, ptr %70, align 4, !tbaa !47
  %72 = fmul float %71, %71
  %73 = fpext float %72 to double
  %74 = fmul double %73, 5.000000e-01
  %75 = getelementptr inbounds nuw float, ptr %62, i64 %indvars.iv.i
  %76 = load float, ptr %75, align 4, !tbaa !47
  %77 = fpext float %76 to double
  %78 = fdiv double %74, %77
  %79 = getelementptr inbounds nuw float, ptr %64, i64 %indvars.iv.i
  %80 = load float, ptr %79, align 4, !tbaa !47
  %81 = fmul float %69, %80
  %82 = fpext float %81 to double
  %83 = fmul double %82, 0x3F81072C483AF26D
  %84 = tail call double @llvm.fmuladd.f64(double %83, double %65, double %78)
  %85 = fadd double %67, %84
  %indvars.iv.next.i = add nuw nsw i64 %indvars.iv.i, 1
  %exitcond.not.i = icmp eq i64 %indvars.iv.next.i, %wide.trip.count.i
  br i1 %exitcond.not.i, label %._crit_edge.i, label %66, !llvm.loop !48

_ZN3gmx15NoseHooverGroup17calculateIntegralEv.exit: ; preds = %52, %._crit_edge.i
  %86 = getelementptr inbounds nuw i8, ptr %0, i64 108
  store float %40, ptr %86, align 4, !tbaa !51
  br label %87

87:                                               ; preds = %_ZN3gmx15NoseHooverGroup17calculateIntegralEv.exit, %.thread
  ret void
}